target datalayout = "e-m:e-p270:32:32-p271:32:32-p272:64:64-i64:64-i128:128-f80:128-n8:16:32:64-S128"
target triple = "x86_64-pc-linux-gnu"

%"class.cvc5::internal::smt::SmtDriver" = type { %"class.cvc5::internal::EnvObj", ptr, ptr, %"class.cvc5::internal::preprocessing::AssertionPipeline" }
%"class.cvc5::internal::EnvObj" = type { ptr, ptr }
%"class.cvc5::internal::preprocessing::AssertionPipeline" = type { %"class.cvc5::internal::EnvObj", %"class.cvc5::internal::NodeTemplate", %"class.cvc5::internal::NodeTemplate", %"class.std::vector", %"class.std::unordered_map", i64, i8, %"class.std::unordered_set", i64, i64, ptr, i8, i8, i8, i8, %"class.std::unique_ptr", %"class.std::unique_ptr.20" }
%"class.cvc5::internal::NodeTemplate" = type { ptr }
%"class.std::vector" = type { %"struct.std::_Vector_base" }
%"struct.std::_Vector_base" = type { %"struct.std::_Vector_base<cvc5::internal::NodeTemplate<true>, std::allocator<cvc5::internal::NodeTemplate<true>>>::_Vector_impl" }
%"struct.std::_Vector_base<cvc5::internal::NodeTemplate<true>, std::allocator<cvc5::internal::NodeTemplate<true>>>::_Vector_impl" = type { %"struct.std::_Vector_base<cvc5::internal::NodeTemplate<true>, std::allocator<cvc5::internal::NodeTemplate<true>>>::_Vector_impl_data" }
%"struct.std::_Vector_base<cvc5::internal::NodeTemplate<true>, std::allocator<cvc5::internal::NodeTemplate<true>>>::_Vector_impl_data" = type { ptr, ptr, ptr }
%"class.std::unordered_map" = type { %"class.std::_Hashtable" }
%"class.std::_Hashtable" = type { ptr, i64, %"struct.std::__detail::_Hash_node_base", i64, %"struct.std::__detail::_Prime_rehash_policy", ptr }
%"struct.std::__detail::_Hash_node_base" = type { ptr }
%"struct.std::__detail::_Prime_rehash_policy" = type { float, i64 }
%"class.std::unordered_set" = type { %"class.std::_Hashtable.5" }
%"class.std::_Hashtable.5" = type { ptr, i64, %"struct.std::__detail::_Hash_node_base", i64, %"struct.std::__detail::_Prime_rehash_policy", ptr }
%"class.std::unique_ptr" = type { %"struct.std::__uniq_ptr_data" }
%"struct.std::__uniq_ptr_data" = type { %"class.std::__uniq_ptr_impl" }
%"class.std::__uniq_ptr_impl" = type { %"class.std::tuple" }
%"class.std::tuple" = type { %"struct.std::_Tuple_impl" }
%"struct.std::_Tuple_impl" = type { %"struct.std::_Head_base.19" }
%"struct.std::_Head_base.19" = type { ptr }
%"class.std::unique_ptr.20" = type { %"struct.std::__uniq_ptr_data.21" }
%"struct.std::__uniq_ptr_data.21" = type { %"class.std::__uniq_ptr_impl.22" }
%"class.std::__uniq_ptr_impl.22" = type { %"class.std::tuple.23" }
%"class.std::tuple.23" = type { %"struct.std::_Tuple_impl.24" }
%"struct.std::_Tuple_impl.24" = type { %"struct.std::_Head_base.27" }
%"struct.std::_Head_base.27" = type { ptr }

; Function Attrs: mustprogress uwtable
define hidden void @_ZN4cvc58internal3smt9SmtDriver25getNextAssertionsInternalERNS0_13preprocessing17AssertionPipelineE(ptr noundef nonnull align 8 dereferenceable(264) %0, ptr noundef nonnull align 8 dereferenceable(232) %1) #4 align 2 {
  %3 = alloca ptr, align 8
  %4 = alloca ptr, align 8
  store ptr %0, ptr %3, align 8, !tbaa !3
  store ptr %1, ptr %4, align 8, !tbaa !55
  %5 = load ptr, ptr %3, align 8
  %6 = load ptr, ptr %4, align 8, !tbaa !55
  call void @_ZN4cvc58internal13preprocessing17AssertionPipeline5clearEv(ptr noundef nonnull align 8 dereferenceable(232) %6)
  %7 = getelementptr inbounds nuw %"class.cvc5::internal::smt::SmtDriver", ptr %5, i32 0, i32 1
  %8 = load ptr, ptr %7, align 8, !tbaa !53
  %9 = call noundef nonnull align 8 dereferenceable(288) ptr @_ZN4cvc58internal3smt9SmtSolver13getAssertionsEv(ptr noundef nonnull align 8 dereferenceable(1288) %8)
  call void @_ZN4cvc58internal3smt10Assertions7refreshEv(ptr noundef nonnull align 8 dereferenceable(288) %9)
  %10 = load ptr, ptr %4, align 8, !tbaa !55
  %11 = load ptr, ptr %5, align 8, !tbaa !14
  %12 = getelementptr inbounds ptr, ptr %11, i64 3
  %13 = load ptr, ptr %12, align 8
  call void %13(ptr noundef nonnull align 8 dereferenceable(264) %5, ptr noundef nonnull align 8 dereferenceable(232) %10)
  ret void
}

; Function Attrs: mustprogress uwtable
define hidden void @_ZN4cvc58internal3smt9SmtDriver17refreshAssertionsEv(ptr noundef nonnull align 8 dereferenceable(264) %0) #4 align 2 {
  %2 = alloca ptr, align 8
  store ptr %0, ptr %2, align 8, !tbaa !3
  %3 = load ptr, ptr %2, align 8
  %4 = getelementptr inbounds nuw %"class.cvc5::internal::smt::SmtDriver", ptr %3, i32 0, i32 3
  call void @_ZN4cvc58internal3smt9SmtDriver25getNextAssertionsInternalERNS0_13preprocessing17AssertionPipelineE(ptr noundef nonnull align 8 dereferenceable(264) %3, ptr noundef nonnull align 8 dereferenceable(232) %4)
  %5 = getelementptr inbounds nuw %"class.cvc5::internal::smt::SmtDriver", ptr %3, i32 0, i32 1
  %6 = load ptr, ptr %5, align 8, !tbaa !53
  %7 = getelementptr inbounds nuw %"class.cvc5::internal::smt::SmtDriver", ptr %3, i32 0, i32 3
  call void @_ZN4cvc58internal3smt9SmtSolver10preprocessERNS0_13preprocessing17AssertionPipelineE(ptr noundef nonnull align 8 dereferenceable(1288) %6, ptr noundef nonnull align 8 dereferenceable(232) %7)
  %8 = getelementptr inbounds nuw %"class.cvc5::internal::smt::SmtDriver", ptr %3, i32 0, i32 1
  %9 = load ptr, ptr %8, align 8, !tbaa !53
  %10 = getelementptr inbounds nuw %"class.cvc5::internal::smt::SmtDriver", ptr %3, i32 0, i32 3
  call void @_ZN4cvc58internal3smt9SmtSolver16assertToInternalERNS0_13preprocessing17AssertionPipelineE(ptr noundef nonnull align 8 dereferenceable(1288) %9, ptr noundef nonnull align 8 dereferenceable(232) %10)
  ret void
}