; Function Attrs: mustprogress uwtable
define hidden void @_ZN4cvc58internal3smt9SmtDriver17refreshAssertionsEv(ptr noundef nonnull align 8 dereferenceable(264) %0) local_unnamed_addr #3 align 2 {
  %2 = getelementptr inbounds nuw i8, ptr %0, i64 32
  tail call void @_ZN4cvc58internal13preprocessing17AssertionPipeline5clearEv(ptr noundef nonnull align 8 dereferenceable(232) %2)
  %3 = getelementptr inbounds nuw i8, ptr %0, i64 16
  %4 = load ptr, ptr %3, align 8, !tbaa !49
  %5 = tail call noundef nonnull align 8 dereferenceable(288) ptr @_ZN4cvc58internal3smt9SmtSolver13getAssertionsEv(ptr noundef nonnull align 8 dereferenceable(1288) %4)
  tail call void @_ZN4cvc58internal3smt10Assertions7refreshEv(ptr noundef nonnull align 8 dereferenceable(288) %5)
  %6 = load ptr, ptr %0, align 8, !tbaa !3
  %7 = getelementptr inbounds nuw i8, ptr %6, i64 24
  %8 = load ptr, ptr %7, align 8
  tail call void %8(ptr noundef nonnull align 8 dereferenceable(264) %0, ptr noundef nonnull align 8 dereferenceable(232) %2)
  %9 = load ptr, ptr %3, align 8, !tbaa !49
  tail call void @_ZN4cvc58internal3smt9SmtSolver10preprocessERNS0_13preprocessing17AssertionPipelineE(ptr noundef nonnull align 8 dereferenceable(1288) %9, ptr noundef nonnull align 8 dereferenceable(232) %2)
  %10 = load ptr, ptr %3, align 8, !tbaa !49
  tail call void @_ZN4cvc58internal3smt9SmtSolver16assertToInternalERNS0_13preprocessing17AssertionPipelineE(ptr noundef nonnull align 8 dereferenceable(1288) %10, ptr noundef nonnull align 8 dereferenceable(232) %2)
  ret void
}